target datalayout = "e-m:e-p270:32:32-p271:32:32-p272:64:64-i64:64-i128:128-f80:128-n8:16:32:64-S128"
target triple = "x86_64-pc-linux-gnu"

%struct.Vec_Int_t_ = type { i32, i32, ptr }
%struct.Vec_Wec_t_ = type { i32, i32, ptr }

; Function Attrs: inlinehint nounwind uwtable
define internal void @Vec_WecErase(ptr noundef %0) #1 {
  %2 = alloca ptr, align 8
  %3 = alloca i32, align 4
  store ptr %0, ptr %2, align 8, !tbaa !47
  call void @llvm.lifetime.start.p0(i64 4, ptr %3) #12
  store i32 0, ptr %3, align 4, !tbaa !3
  br label %4

4:                                                ; preds = %38, %1
  %5 = load i32, ptr %3, align 4, !tbaa !3
  %6 = load ptr, ptr %2, align 8, !tbaa !47
  %7 = getelementptr inbounds nuw %struct.Vec_Wec_t_, ptr %6, i32 0, i32 0
  %8 = load i32, ptr %7, align 8, !tbaa !52
  %9 = icmp slt i32 %5, %8
  br i1 %9, label %10, label %41

10:                                               ; preds = %4
  %11 = load ptr, ptr %2, align 8, !tbaa !47
  %12 = getelementptr inbounds nuw %struct.Vec_Wec_t_, ptr %11, i32 0, i32 2
  %13 = load ptr, ptr %12, align 8, !tbaa !53
  %14 = load i32, ptr %3, align 4, !tbaa !3
  %15 = sext i32 %14 to i64
  %16 = getelementptr inbounds %struct.Vec_Int_t_, ptr %13, i64 %15
  %17 = getelementptr inbounds nuw %struct.Vec_Int_t_, ptr %16, i32 0, i32 2
  %18 = load ptr, ptr %17, align 8, !tbaa !45
  %19 = icmp ne ptr %18, null
  br i1 %19, label %20, label %36

20:                                               ; preds = %10
  %21 = load ptr, ptr %2, align 8, !tbaa !47
  %22 = getelementptr inbounds nuw %struct.Vec_Wec_t_, ptr %21, i32 0, i32 2
  %23 = load ptr, ptr %22, align 8, !tbaa !53
  %24 = load i32, ptr %3, align 4, !tbaa !3
  %25 = sext i32 %24 to i64
  %26 = getelementptr inbounds %struct.Vec_Int_t_, ptr %23, i64 %25
  %27 = getelementptr inbounds nuw %struct.Vec_Int_t_, ptr %26, i32 0, i32 2
  %28 = load ptr, ptr %27, align 8, !tbaa !45
  call void @free(ptr noundef %28) #12
  %29 = load ptr, ptr %2, align 8, !tbaa !47
  %30 = getelementptr inbounds nuw %struct.Vec_Wec_t_, ptr %29, i32 0, i32 2
  %31 = load ptr, ptr %30, align 8, !tbaa !53
  %32 = load i32, ptr %3, align 4, !tbaa !3
  %33 = sext i32 %32 to i64
  %34 = getelementptr inbounds %struct.Vec_Int_t_, ptr %31, i64 %33
  %35 = getelementptr inbounds nuw %struct.Vec_Int_t_, ptr %34, i32 0, i32 2
  store ptr null, ptr %35, align 8, !tbaa !45
  br label %37

36:                                               ; preds = %10
  br label %37

37:                                               ; preds = %36, %20
  br label %38

38:                                               ; preds = %37
  %39 = load i32, ptr %3, align 4, !tbaa !3
  %40 = add nsw i32 %39, 1
  store i32 %40, ptr %3, align 4, !tbaa !3
  br label %4, !llvm.loop !150

41:                                               ; preds = %4
  %42 = load ptr, ptr %2, align 8, !tbaa !47
  %43 = getelementptr inbounds nuw %struct.Vec_Wec_t_, ptr %42, i32 0, i32 2
  %44 = load ptr, ptr %43, align 8, !tbaa !53
  %45 = icmp ne ptr %44, null
  br i1 %45, label %46, label %52

46:                                               ; preds = %41
  %47 = load ptr, ptr %2, align 8, !tbaa !47
  %48 = getelementptr inbounds nuw %struct.Vec_Wec_t_, ptr %47, i32 0, i32 2
  %49 = load ptr, ptr %48, align 8, !tbaa !53
  call void @free(ptr noundef %49) #12
  %50 = load ptr, ptr %2, align 8, !tbaa !47
  %51 = getelementptr inbounds nuw %struct.Vec_Wec_t_, ptr %50, i32 0, i32 2
  store ptr null, ptr %51, align 8, !tbaa !53
  br label %53

52:                                               ; preds = %41
  br label %53

53:                                               ; preds = %52, %46
  %54 = load ptr, ptr %2, align 8, !tbaa !47
  %55 = getelementptr inbounds nuw %struct.Vec_Wec_t_, ptr %54, i32 0, i32 1
  store i32 0, ptr %55, align 4, !tbaa !50
  %56 = load ptr, ptr %2, align 8, !tbaa !47
  %57 = getelementptr inbounds nuw %struct.Vec_Wec_t_, ptr %56, i32 0, i32 0
  store i32 0, ptr %57, align 8, !tbaa !52
  call void @llvm.lifetime.end.p0(i64 4, ptr %3) #12
  ret void
}

; Function Attrs: inlinehint nounwind uwtable
define internal void @Vec_IntFree(ptr noundef %0) #1 {
  %2 = alloca ptr, align 8
  store ptr %0, ptr %2, align 8, !tbaa !39
  %3 = load ptr, ptr %2, align 8, !tbaa !39
  %4 = getelementptr inbounds nuw %struct.Vec_Int_t_, ptr %3, i32 0, i32 2
  %5 = load ptr, ptr %4, align 8, !tbaa !45
  %6 = icmp ne ptr %5, null
  br i1 %6, label %7, label %13

7:                                                ; preds = %1
  %8 = load ptr, ptr %2, align 8, !tbaa !39
  %9 = getelementptr inbounds nuw %struct.Vec_Int_t_, ptr %8, i32 0, i32 2
  %10 = load ptr, ptr %9, align 8, !tbaa !45
  call void @free(ptr noundef %10) #12
  %11 = load ptr, ptr %2, align 8, !tbaa !39
  %12 = getelementptr inbounds nuw %struct.Vec_Int_t_, ptr %11, i32 0, i32 2
  store ptr null, ptr %12, align 8, !tbaa !45
  br label %14

13:                                               ; preds = %1
  br label %14

14:                                               ; preds = %13, %7
  %15 = load ptr, ptr %2, align 8, !tbaa !39
  %16 = icmp ne ptr %15, null
  br i1 %16, label %17, label %19

17:                                               ; preds = %14
  %18 = load ptr, ptr %2, align 8, !tbaa !39
  call void @free(ptr noundef %18) #12
  store ptr null, ptr %2, align 8, !tbaa !39
  br label %20

19:                                               ; preds = %14
  br label %20

20:                                               ; preds = %19, %17
  ret void
}

; Function Attrs: inlinehint nounwind uwtable
define internal void @Vec_WecFree(ptr noundef %0) #1 {
  %2 = alloca ptr, align 8
  store ptr %0, ptr %2, align 8, !tbaa !47
  %3 = load ptr, ptr %2, align 8, !tbaa !47
  call void @Vec_WecErase(ptr noundef %3)
  %4 = load ptr, ptr %2, align 8, !tbaa !47
  %5 = icmp ne ptr %4, null
  br i1 %5, label %6, label %8

6:                                                ; preds = %1
  %7 = load ptr, ptr %2, align 8, !tbaa !47
  call void @free(ptr noundef %7) #12
  store ptr null, ptr %2, align 8, !tbaa !47
  br label %9

8:                                                ; preds = %1
  br label %9

9:                                                ; preds = %8, %6
  ret void
}

; Function Attrs: nounwind uwtable
define void @Abc_EnumerateFrontierTest(i32 noundef %0) #0 {
  %2 = alloca i32, align 4
  %3 = alloca i32, align 4
  %4 = alloca ptr, align 8
  %5 = alloca ptr, align 8
  %6 = alloca ptr, align 8
  store i32 %0, ptr %2, align 4, !tbaa !3
  call void @llvm.lifetime.start.p0(i64 4, ptr %3) #12
  store i32 0, ptr %3, align 4, !tbaa !3
  call void @llvm.lifetime.start.p0(i64 8, ptr %4) #12
  %7 = load i32, ptr %2, align 4, !tbaa !3
  %8 = call ptr @Abc_GraphGrid(i32 noundef %7)
  store ptr %8, ptr %4, align 8, !tbaa !39
  call void @llvm.lifetime.start.p0(i64 8, ptr %5) #12
  %9 = load ptr, ptr %4, align 8, !tbaa !39
  %10 = load i32, ptr %2, align 4, !tbaa !3
  %11 = call ptr @Abc_GraphNodeLife(ptr noundef %9, i32 noundef %10)
  store ptr %11, ptr %5, align 8, !tbaa !39
  call void @llvm.lifetime.start.p0(i64 8, ptr %6) #12
  %12 = load ptr, ptr %4, align 8, !tbaa !39
  %13 = load ptr, ptr %5, align 8, !tbaa !39
  %14 = call ptr @Abc_GraphFrontiers(ptr noundef %12, ptr noundef %13)
  store ptr %14, ptr %6, align 8, !tbaa !47
  %15 = load i32, ptr %2, align 4, !tbaa !3
  %16 = load ptr, ptr %4, align 8, !tbaa !39
  %17 = load ptr, ptr %5, align 8, !tbaa !39
  %18 = load ptr, ptr %6, align 8, !tbaa !47
  %19 = load i32, ptr %3, align 4, !tbaa !3
  call void @Abc_GraphBuildFrontier(i32 noundef %15, ptr noundef %16, ptr noundef %17, ptr noundef %18, i32 noundef %19)
  %20 = load ptr, ptr %6, align 8, !tbaa !47
  call void @Vec_WecFree(ptr noundef %20)
  %21 = load ptr, ptr %5, align 8, !tbaa !39
  call void @Vec_IntFree(ptr noundef %21)
  %22 = load ptr, ptr %4, align 8, !tbaa !39
  call void @Vec_IntFree(ptr noundef %22)
  call void @llvm.lifetime.end.p0(i64 8, ptr %6) #12
  call void @llvm.lifetime.end.p0(i64 8, ptr %5) #12
  call void @llvm.lifetime.end.p0(i64 8, ptr %4) #12
  call void @llvm.lifetime.end.p0(i64 4, ptr %3) #12
  ret void
}