; Function Attrs: nounwind uwtable
define void @Abc_EnumerateFrontierTest(i32 noundef %0) local_unnamed_addr #1 {
  %2 = tail call ptr @Abc_GraphGrid(i32 noundef %0)
  %3 = tail call ptr @Abc_GraphNodeLife(ptr noundef %2, i32 noundef %0)
  %4 = tail call ptr @Abc_GraphFrontiers(ptr noundef %2, ptr noundef %3)
  tail call void @Abc_GraphBuildFrontier(i32 noundef %0, ptr noundef %2, ptr noundef %3, ptr noundef %4, i32 noundef 0)
  %5 = load i32, ptr %4, align 8, !tbaa !45
  %6 = icmp sgt i32 %5, 0
  %7 = getelementptr inbounds nuw i8, ptr %4, i64 8
  %.pre.i.i = load ptr, ptr %7, align 8, !tbaa !46
  br i1 %6, label %.lr.ph.i.i.preheader, label %._crit_edge.i.i

.lr.ph.i.i.preheader:                             ; preds = %1
  %8 = zext nneg i32 %5 to i64
  br label %.lr.ph.i.i

.lr.ph.i.i:                                       ; preds = %.lr.ph.i.i.preheader, %12
  %indvars.iv.i.i = phi i64 [ %indvars.iv.next.i.i, %12 ], [ 0, %.lr.ph.i.i.preheader ]
  %9 = getelementptr inbounds nuw %struct.Vec_Int_t_, ptr %.pre.i.i, i64 %indvars.iv.i.i, i32 2
  %10 = load ptr, ptr %9, align 8, !tbaa !37
  %.not15.i.i = icmp eq ptr %10, null
  br i1 %.not15.i.i, label %12, label %11

11:                                               ; preds = %.lr.ph.i.i
  tail call void @free(ptr noundef nonnull %10) #23
  store ptr null, ptr %9, align 8, !tbaa !37
  br label %12

12:                                               ; preds = %11, %.lr.ph.i.i
  %indvars.iv.next.i.i = add nuw nsw i64 %indvars.iv.i.i, 1
  %exitcond.not = icmp eq i64 %indvars.iv.next.i.i, %8
  br i1 %exitcond.not, label %._crit_edge.thread.i.i, label %.lr.ph.i.i, !llvm.loop !101

._crit_edge.i.i:                                  ; preds = %1
  %.not.i.i = icmp eq ptr %.pre.i.i, null
  br i1 %.not.i.i, label %Vec_WecFree.exit, label %._crit_edge.thread.i.i

._crit_edge.thread.i.i:                           ; preds = %12, %._crit_edge.i.i
  tail call void @free(ptr noundef nonnull %.pre.i.i) #23
  br label %Vec_WecFree.exit

Vec_WecFree.exit:                                 ; preds = %._crit_edge.i.i, %._crit_edge.thread.i.i
  tail call void @free(ptr noundef nonnull %4) #23
  %13 = getelementptr inbounds nuw i8, ptr %3, i64 8
  %14 = load ptr, ptr %13, align 8, !tbaa !37
  %.not.i = icmp eq ptr %14, null
  br i1 %.not.i, label %Vec_IntFree.exit, label %15

15:                                               ; preds = %Vec_WecFree.exit
  tail call void @free(ptr noundef nonnull %14) #23
  br label %Vec_IntFree.exit

Vec_IntFree.exit:                                 ; preds = %Vec_WecFree.exit, %15
  tail call void @free(ptr noundef nonnull %3) #23
  %16 = getelementptr inbounds nuw i8, ptr %2, i64 8
  %17 = load ptr, ptr %16, align 8, !tbaa !37
  %.not.i12 = icmp eq ptr %17, null
  br i1 %.not.i12, label %Vec_IntFree.exit13, label %18

18:                                               ; preds = %Vec_IntFree.exit
  tail call void @free(ptr noundef nonnull %17) #23
  br label %Vec_IntFree.exit13

Vec_IntFree.exit13:                               ; preds = %Vec_IntFree.exit, %18
  tail call void @free(ptr noundef nonnull %2) #23
  ret void
}